target datalayout = "e-m:e-p270:32:32-p271:32:32-p272:64:64-i64:64-i128:128-f80:128-n8:16:32:64-S128"
target triple = "x86_64-pc-linux-gnu"

; Function Attrs: nounwind uwtable
define i32 @cli_chomp(ptr noundef %0) #0 {
  %2 = alloca i32, align 4
  %3 = alloca ptr, align 8
  %4 = alloca i32, align 4
  store ptr %0, ptr %3, align 8
  %5 = load ptr, ptr %3, align 8
  %6 = icmp eq ptr %5, null
  br i1 %6, label %7, label %8

7:                                                ; preds = %1
  store i32 -1, ptr %2, align 4
  br label %50

8:                                                ; preds = %1
  %9 = load ptr, ptr %3, align 8
  %10 = call i64 @strlen(ptr noundef %9) #7
  %11 = trunc i64 %10 to i32
  store i32 %11, ptr %4, align 4
  %12 = load i32, ptr %4, align 4
  %13 = icmp eq i32 %12, 0
  br i1 %13, label %14, label %15

14:                                               ; preds = %8
  store i32 0, ptr %2, align 4
  br label %50

15:                                               ; preds = %8
  %16 = load i32, ptr %4, align 4
  %17 = add nsw i32 %16, -1
  store i32 %17, ptr %4, align 4
  br label %18

18:                                               ; preds = %41, %15
  %19 = load i32, ptr %4, align 4
  %20 = icmp sge i32 %19, 0
  br i1 %20, label %21, label %39

21:                                               ; preds = %18
  %22 = load ptr, ptr %3, align 8
  %23 = load i32, ptr %4, align 4
  %24 = sext i32 %23 to i64
  %25 = getelementptr inbounds i8, ptr %22, i64 %24
  %26 = load i8, ptr %25, align 1
  %27 = sext i8 %26 to i32
  %28 = icmp eq i32 %27, 10
  br i1 %28, label %37, label %29

29:                                               ; preds = %21
  %30 = load ptr, ptr %3, align 8
  %31 = load i32, ptr %4, align 4
  %32 = sext i32 %31 to i64
  %33 = getelementptr inbounds i8, ptr %30, i64 %32
  %34 = load i8, ptr %33, align 1
  %35 = sext i8 %34 to i32
  %36 = icmp eq i32 %35, 13
  br label %37

37:                                               ; preds = %29, %21
  %38 = phi i1 [ true, %21 ], [ %36, %29 ]
  br label %39

39:                                               ; preds = %37, %18
  %40 = phi i1 [ false, %18 ], [ %38, %37 ]
  br i1 %40, label %41, label %47

41:                                               ; preds = %39
  %42 = load ptr, ptr %3, align 8
  %43 = load i32, ptr %4, align 4
  %44 = add nsw i32 %43, -1
  store i32 %44, ptr %4, align 4
  %45 = sext i32 %43 to i64
  %46 = getelementptr inbounds i8, ptr %42, i64 %45
  store i8 0, ptr %46, align 1
  br label %18

47:                                               ; preds = %39
  %48 = load i32, ptr %4, align 4
  %49 = add nsw i32 %48, 1
  store i32 %49, ptr %2, align 4
  br label %50

50:                                               ; preds = %47, %14, %7
  %51 = load i32, ptr %2, align 4
  ret i32 %51
}