; Function Attrs: nofree nounwind memory(argmem: readwrite) uwtable
define i32 @cli_chomp(ptr noundef %0) local_unnamed_addr #8 {
  %2 = icmp eq ptr %0, null
  br i1 %2, label %.critedge, label %3

3:                                                ; preds = %1
  %4 = tail call i64 @strlen(ptr noundef nonnull dereferenceable(1) %0) #26
  %5 = trunc i64 %4 to i32
  %6 = icmp eq i32 %5, 0
  br i1 %6, label %.critedge, label %.preheader

.preheader:                                       ; preds = %3
  %7 = icmp sgt i32 %5, 0
  br i1 %7, label %.lr.ph.preheader, label %.critedge

.lr.ph.preheader:                                 ; preds = %.preheader
  %8 = and i64 %4, 2147483647
  br label %.lr.ph

.lr.ph:                                           ; preds = %.lr.ph.preheader, %.critedge2
  %indvars.iv = phi i64 [ %8, %.lr.ph.preheader ], [ %indvars.iv.next, %.critedge2 ]
  %indvars.iv.next = add nsw i64 %indvars.iv, -1
  %9 = getelementptr inbounds i8, ptr %0, i64 %indvars.iv.next
  %10 = load i8, ptr %9, align 1
  switch i8 %10, label %.critedge.loopexit.split.loop.exit24 [
    i8 10, label %.critedge2
    i8 13, label %.critedge2
  ]

.critedge2:                                       ; preds = %.lr.ph, %.lr.ph
  store i8 0, ptr %9, align 1
  %11 = icmp ugt i64 %indvars.iv, 1
  br i1 %11, label %.lr.ph, label %.critedge

.critedge.loopexit.split.loop.exit24:             ; preds = %.lr.ph
  %12 = trunc nuw nsw i64 %indvars.iv to i32
  br label %.critedge

.critedge:                                        ; preds = %.critedge2, %.critedge.loopexit.split.loop.exit24, %.preheader, %3, %1
  %.014 = phi i32 [ -1, %1 ], [ 0, %3 ], [ %5, %.preheader ], [ %12, %.critedge.loopexit.split.loop.exit24 ], [ 0, %.critedge2 ]
  ret i32 %.014
}